target datalayout = "e-m:e-p270:32:32-p271:32:32-p272:64:64-i64:64-i128:128-f80:128-n8:16:32:64-S128"
target triple = "x86_64-pc-linux-gnu"

%struct.FSEv07_DTableHeader = type { i16, i16 }
%struct.FSEv07_decode_t = type { i16, i8, i8 }

; Function Attrs: nounwind uwtable
define i64 @FSEv07_buildDTable_rle(ptr noundef %0, i8 noundef zeroext %1) #0 {
  %3 = alloca ptr, align 8
  %4 = alloca i8, align 1
  %5 = alloca ptr, align 8
  %6 = alloca ptr, align 8
  %7 = alloca ptr, align 8
  %8 = alloca ptr, align 8
  store ptr %0, ptr %3, align 8, !tbaa !10
  store i8 %1, ptr %4, align 1, !tbaa !25
  call void @llvm.lifetime.start.p0(i64 8, ptr %5) #11
  %9 = load ptr, ptr %3, align 8, !tbaa !10
  store ptr %9, ptr %5, align 8, !tbaa !12
  call void @llvm.lifetime.start.p0(i64 8, ptr %6) #11
  %10 = load ptr, ptr %5, align 8, !tbaa !12
  store ptr %10, ptr %6, align 8, !tbaa !12
  call void @llvm.lifetime.start.p0(i64 8, ptr %7) #11
  %11 = load ptr, ptr %3, align 8, !tbaa !10
  %12 = getelementptr inbounds i32, ptr %11, i64 1
  store ptr %12, ptr %7, align 8, !tbaa !12
  call void @llvm.lifetime.start.p0(i64 8, ptr %8) #11
  %13 = load ptr, ptr %7, align 8, !tbaa !12
  store ptr %13, ptr %8, align 8, !tbaa !12
  %14 = load ptr, ptr %6, align 8, !tbaa !12
  %15 = getelementptr inbounds nuw %struct.FSEv07_DTableHeader, ptr %14, i32 0, i32 0
  store i16 0, ptr %15, align 2, !tbaa !28
  %16 = load ptr, ptr %6, align 8, !tbaa !12
  %17 = getelementptr inbounds nuw %struct.FSEv07_DTableHeader, ptr %16, i32 0, i32 1
  store i16 0, ptr %17, align 2, !tbaa !30
  %18 = load ptr, ptr %8, align 8, !tbaa !12
  %19 = getelementptr inbounds nuw %struct.FSEv07_decode_t, ptr %18, i32 0, i32 0
  store i16 0, ptr %19, align 2, !tbaa !38
  %20 = load i8, ptr %4, align 1, !tbaa !25
  %21 = load ptr, ptr %8, align 8, !tbaa !12
  %22 = getelementptr inbounds nuw %struct.FSEv07_decode_t, ptr %21, i32 0, i32 1
  store i8 %20, ptr %22, align 2, !tbaa !31
  %23 = load ptr, ptr %8, align 8, !tbaa !12
  %24 = getelementptr inbounds nuw %struct.FSEv07_decode_t, ptr %23, i32 0, i32 2
  store i8 0, ptr %24, align 1, !tbaa !37
  call void @llvm.lifetime.end.p0(i64 8, ptr %8) #11
  call void @llvm.lifetime.end.p0(i64 8, ptr %7) #11
  call void @llvm.lifetime.end.p0(i64 8, ptr %6) #11
  call void @llvm.lifetime.end.p0(i64 8, ptr %5) #11
  ret i64 0
}